target datalayout = "e-m:e-p270:32:32-p271:32:32-p272:64:64-i64:64-i128:128-f80:128-n8:16:32:64-S128"
target triple = "x86_64-pc-linux-gnu"

%struct.rule = type { ptr, ptr, i32, i32, i32, ptr, ptr, i32, ptr, ptr, ptr, ptr, i32, i32, i32, i32, i32, i32, i32, ptr, ptr }
%struct.config = type { ptr, i32, ptr, ptr, ptr, ptr, i32, ptr, ptr }

; Function Attrs: nounwind null_pointer_is_valid sspstrong uwtable
define hidden i32 @confighash(ptr noundef %0) #2 {
  %2 = alloca ptr, align 8
  %3 = alloca i32, align 4
  store ptr %0, ptr %2, align 8
  call void @llvm.lifetime.start.p0(i64 4, ptr %3) #18
  store i32 0, ptr %3, align 4
  %4 = load i32, ptr %3, align 4
  %5 = mul i32 %4, 571
  %6 = load ptr, ptr %2, align 8
  %7 = getelementptr inbounds nuw %struct.config, ptr %6, i32 0, i32 0
  %8 = load ptr, ptr %7, align 8
  %9 = getelementptr inbounds nuw %struct.rule, ptr %8, i32 0, i32 12
  %10 = load i32, ptr %9, align 8
  %11 = mul i32 %10, 37
  %12 = add i32 %5, %11
  %13 = load ptr, ptr %2, align 8
  %14 = getelementptr inbounds nuw %struct.config, ptr %13, i32 0, i32 1
  %15 = load i32, ptr %14, align 8
  %16 = add i32 %12, %15
  store i32 %16, ptr %3, align 4
  %17 = load i32, ptr %3, align 4
  call void @llvm.lifetime.end.p0(i64 4, ptr %3) #18
  ret i32 %17
}