; Function Attrs: mustprogress nofree norecurse nosync nounwind null_pointer_is_valid sspstrong willreturn memory(read, inaccessiblemem: none) uwtable
define hidden i32 @confighash(ptr noundef readonly captures(none) %0) local_unnamed_addr #19 {
  %2 = load ptr, ptr %0, align 8
  %3 = getelementptr inbounds nuw i8, ptr %2, i64 88
  %4 = load i32, ptr %3, align 8
  %5 = mul i32 %4, 37
  %6 = getelementptr inbounds nuw i8, ptr %0, i64 8
  %7 = load i32, ptr %6, align 8
  %8 = add i32 %5, %7
  ret i32 %8
}